target datalayout = "e-m:e-p270:32:32-p271:32:32-p272:64:64-i64:64-i128:128-f80:128-n8:16:32:64-S128"
target triple = "x86_64-unknown-linux-gnu"

%"class.icu_75::UnicodeString" = type { %"class.icu_75::Replaceable", %"union.icu_75::UnicodeString::StackBufferOrFields" }
%"class.icu_75::Replaceable" = type { %"class.icu_75::UObject" }
%"class.icu_75::UObject" = type { ptr }
%"union.icu_75::UnicodeString::StackBufferOrFields" = type { %struct.anon.0, [32 x i8] }
%struct.anon.0 = type { i16, i32, i32, ptr }
%"class.icu_75::ConstChar16Ptr" = type { ptr }
%struct.USetAdder = type { ptr, ptr, ptr, ptr, ptr, ptr }
%"class.icu_75::NameUnicodeTransliterator" = type { %"class.icu_75::Transliterator.base", [4 x i8], %"class.icu_75::UnicodeSet" }
%"class.icu_75::Transliterator.base" = type <{ %"class.icu_75::UObject", %"class.icu_75::UnicodeString", ptr, i32 }>
%"class.icu_75::UnicodeSet" = type <{ %"class.icu_75::UnicodeFilter", ptr, i32, i32, i8, [7 x i8], ptr, ptr, i32, [4 x i8], ptr, i32, [4 x i8], ptr, ptr, [25 x i32], [4 x i8] }>
%"class.icu_75::UnicodeFilter" = type { %"class.icu_75::UnicodeFunctor", %"class.icu_75::UnicodeMatcher" }
%"class.icu_75::UnicodeFunctor" = type { %"class.icu_75::UObject" }
%"class.icu_75::UnicodeMatcher" = type { ptr }

@.str = private unnamed_addr constant [9 x i16] [i16 78, i16 97, i16 109, i16 101, i16 45, i16 65, i16 110, i16 121, i16 0], align 2

; Function Attrs: mustprogress nounwind uwtable
define linkonce_odr void @_ZN6icu_7514ConstChar16PtrD2Ev(ptr noundef nonnull align 8 dereferenceable(8) %this) unnamed_addr #0 comdat align 2 {
entry:
  %this.addr = alloca ptr, align 8
  store ptr %this, ptr %this.addr, align 8
  %this1 = load ptr, ptr %this.addr, align 8
  %p_ = getelementptr inbounds %"class.icu_75::ConstChar16Ptr", ptr %this1, i32 0, i32 0
  %0 = load ptr, ptr %p_, align 8
  call void asm sideeffect "", "rm,~{memory},~{dirflag},~{fpsr},~{flags}"(ptr %0) #7, !srcloc !4
  ret void
}

; Function Attrs: mustprogress nounwind uwtable
define linkonce_odr void @_ZN6icu_7514ConstChar16PtrC2EPKDs(ptr noundef nonnull align 8 dereferenceable(8) %this, ptr noundef %p) unnamed_addr #0 comdat align 2 {
entry:
  %this.addr = alloca ptr, align 8
  %p.addr = alloca ptr, align 8
  store ptr %this, ptr %this.addr, align 8
  store ptr %p, ptr %p.addr, align 8
  %this1 = load ptr, ptr %this.addr, align 8
  %p_ = getelementptr inbounds %"class.icu_75::ConstChar16Ptr", ptr %this1, i32 0, i32 0
  %0 = load ptr, ptr %p.addr, align 8
  store ptr %0, ptr %p_, align 8
  ret void
}

; Function Attrs: mustprogress uwtable
define void @_ZN6icu_7525NameUnicodeTransliteratorC2EPNS_13UnicodeFilterE(ptr noundef nonnull align 8 dereferenceable(288) %this, ptr noundef %adoptedFilter) unnamed_addr #1 align 2 personality ptr @__gxx_personality_v0 {
entry:
  %this.addr = alloca ptr, align 8
  %adoptedFilter.addr = alloca ptr, align 8
  %ref.tmp = alloca %"class.icu_75::UnicodeString", align 8
  %agg.tmp = alloca %"class.icu_75::ConstChar16Ptr", align 8
  %exn.slot = alloca ptr, align 8
  %ehselector.slot = alloca i32, align 4
  %legalPtr = alloca ptr, align 8
  %sa = alloca %struct.USetAdder, align 8
  store ptr %this, ptr %this.addr, align 8
  store ptr %adoptedFilter, ptr %adoptedFilter.addr, align 8
  %this1 = load ptr, ptr %this.addr, align 8
  call void @_ZN6icu_7514ConstChar16PtrC2EPKDs(ptr noundef nonnull align 8 dereferenceable(8) %agg.tmp, ptr noundef @.str)
  invoke void @_ZN6icu_7513UnicodeStringC1EaNS_14ConstChar16PtrEi(ptr noundef nonnull align 8 dereferenceable(64) %ref.tmp, i8 noundef signext 1, ptr noundef %agg.tmp, i32 noundef 8)
          to label %invoke.cont unwind label %lpad

invoke.cont:                                      ; preds = %entry
  %0 = load ptr, ptr %adoptedFilter.addr, align 8
  invoke void @_ZN6icu_7514TransliteratorC2ERKNS_13UnicodeStringEPNS_13UnicodeFilterE(ptr noundef nonnull align 8 dereferenceable(84) %this1, ptr noundef nonnull align 8 dereferenceable(64) %ref.tmp, ptr noundef %0)
          to label %invoke.cont3 unwind label %lpad2

invoke.cont3:                                     ; preds = %invoke.cont
  call void @_ZN6icu_7513UnicodeStringD1Ev(ptr noundef nonnull align 8 dereferenceable(64) %ref.tmp) #7
  call void @_ZN6icu_7514ConstChar16PtrD2Ev(ptr noundef nonnull align 8 dereferenceable(8) %agg.tmp) #7
  store ptr getelementptr inbounds ({ [19 x ptr] }, ptr @_ZTVN6icu_7525NameUnicodeTransliteratorE, i32 0, i32 0, i32 2), ptr %this1, align 8
  %legal = getelementptr inbounds %"class.icu_75::NameUnicodeTransliterator", ptr %this1, i32 0, i32 2
  invoke void @_ZN6icu_7510UnicodeSetC1Ev(ptr noundef nonnull align 8 dereferenceable(200) %legal)
          to label %invoke.cont5 unwind label %lpad4

invoke.cont5:                                     ; preds = %invoke.cont3
  %legal6 = getelementptr inbounds %"class.icu_75::NameUnicodeTransliterator", ptr %this1, i32 0, i32 2
  store ptr %legal6, ptr %legalPtr, align 8
  %set = getelementptr inbounds %struct.USetAdder, ptr %sa, i32 0, i32 0
  %1 = load ptr, ptr %legalPtr, align 8
  store ptr %1, ptr %set, align 8
  %add = getelementptr inbounds %struct.USetAdder, ptr %sa, i32 0, i32 1
  store ptr @_ZN6icu_75L8_set_addEP4USeti, ptr %add, align 8
  %addRange = getelementptr inbounds %struct.USetAdder, ptr %sa, i32 0, i32 2
  store ptr null, ptr %addRange, align 8
  %addString = getelementptr inbounds %struct.USetAdder, ptr %sa, i32 0, i32 3
  store ptr null, ptr %addString, align 8
  %remove = getelementptr inbounds %struct.USetAdder, ptr %sa, i32 0, i32 4
  store ptr null, ptr %remove, align 8
  %removeRange = getelementptr inbounds %struct.USetAdder, ptr %sa, i32 0, i32 5
  store ptr null, ptr %removeRange, align 8
  invoke void @uprv_getCharNameCharacters_75(ptr noundef %sa)
          to label %invoke.cont8 unwind label %lpad7

invoke.cont8:                                     ; preds = %invoke.cont5
  ret void

lpad:                                             ; preds = %entry
  %2 = landingpad { ptr, i32 }
          cleanup
  %3 = extractvalue { ptr, i32 } %2, 0
  store ptr %3, ptr %exn.slot, align 8
  %4 = extractvalue { ptr, i32 } %2, 1
  store i32 %4, ptr %ehselector.slot, align 4
  br label %ehcleanup

lpad2:                                            ; preds = %invoke.cont
  %5 = landingpad { ptr, i32 }
          cleanup
  %6 = extractvalue { ptr, i32 } %5, 0
  store ptr %6, ptr %exn.slot, align 8
  %7 = extractvalue { ptr, i32 } %5, 1
  store i32 %7, ptr %ehselector.slot, align 4
  call void @_ZN6icu_7513UnicodeStringD1Ev(ptr noundef nonnull align 8 dereferenceable(64) %ref.tmp) #7
  br label %ehcleanup

ehcleanup:                                        ; preds = %lpad2, %lpad
  call void @_ZN6icu_7514ConstChar16PtrD2Ev(ptr noundef nonnull align 8 dereferenceable(8) %agg.tmp) #7
  br label %eh.resume

lpad4:                                            ; preds = %invoke.cont3
  %8 = landingpad { ptr, i32 }
          cleanup
  %9 = extractvalue { ptr, i32 } %8, 0
  store ptr %9, ptr %exn.slot, align 8
  %10 = extractvalue { ptr, i32 } %8, 1
  store i32 %10, ptr %ehselector.slot, align 4
  br label %ehcleanup10

lpad7:                                            ; preds = %invoke.cont5
  %11 = landingpad { ptr, i32 }
          cleanup
  %12 = extractvalue { ptr, i32 } %11, 0
  store ptr %12, ptr %exn.slot, align 8
  %13 = extractvalue { ptr, i32 } %11, 1
  store i32 %13, ptr %ehselector.slot, align 4
  call void @_ZN6icu_7510UnicodeSetD1Ev(ptr noundef nonnull align 8 dereferenceable(200) %legal) #7
  br label %ehcleanup10

ehcleanup10:                                      ; preds = %lpad7, %lpad4
  call void @_ZN6icu_7514TransliteratorD2Ev(ptr noundef nonnull align 8 dereferenceable(84) %this1) #7
  br label %eh.resume

eh.resume:                                        ; preds = %ehcleanup10, %ehcleanup
  %exn = load ptr, ptr %exn.slot, align 8
  %sel = load i32, ptr %ehselector.slot, align 4
  %lpad.val = insertvalue { ptr, i32 } poison, ptr %exn, 0
  %lpad.val11 = insertvalue { ptr, i32 } %lpad.val, i32 %sel, 1
  resume { ptr, i32 } %lpad.val11
}