; Function Attrs: mustprogress uwtable
define void @_ZN6icu_7525NameUnicodeTransliteratorC2EPNS_13UnicodeFilterE(ptr noundef nonnull align 8 dereferenceable(288) %this, ptr noundef %adoptedFilter) unnamed_addr #1 align 2 personality ptr @__gxx_personality_v0 {
entry:
  %ref.tmp = alloca %"class.icu_75::UnicodeString", align 8
  %agg.tmp = alloca %"class.icu_75::ConstChar16Ptr", align 8
  %sa = alloca %struct.USetAdder, align 8
  store ptr @.str, ptr %agg.tmp, align 8
  invoke void @_ZN6icu_7513UnicodeStringC1EaNS_14ConstChar16PtrEi(ptr noundef nonnull align 8 dereferenceable(64) %ref.tmp, i8 noundef signext 1, ptr noundef nonnull %agg.tmp, i32 noundef 8)
          to label %invoke.cont unwind label %lpad

invoke.cont:                                      ; preds = %entry
  invoke void @_ZN6icu_7514TransliteratorC2ERKNS_13UnicodeStringEPNS_13UnicodeFilterE(ptr noundef nonnull align 8 dereferenceable(84) %this, ptr noundef nonnull align 8 dereferenceable(64) %ref.tmp, ptr noundef %adoptedFilter)
          to label %invoke.cont3 unwind label %lpad2

invoke.cont3:                                     ; preds = %invoke.cont
  call void @_ZN6icu_7513UnicodeStringD1Ev(ptr noundef nonnull align 8 dereferenceable(64) %ref.tmp) #11
  %0 = load ptr, ptr %agg.tmp, align 8
  call void asm sideeffect "", "rm,~{memory},~{dirflag},~{fpsr},~{flags}"(ptr %0) #11, !srcloc !4
  store ptr getelementptr inbounds ({ [19 x ptr] }, ptr @_ZTVN6icu_7525NameUnicodeTransliteratorE, i64 0, i32 0, i64 2), ptr %this, align 8
  %legal = getelementptr inbounds i8, ptr %this, i64 88
  invoke void @_ZN6icu_7510UnicodeSetC1Ev(ptr noundef nonnull align 8 dereferenceable(200) %legal)
          to label %invoke.cont5 unwind label %lpad4

invoke.cont5:                                     ; preds = %invoke.cont3
  store ptr %legal, ptr %sa, align 8
  %add = getelementptr inbounds i8, ptr %sa, i64 8
  store ptr @_ZN6icu_75L8_set_addEP4USeti, ptr %add, align 8
  %addRange = getelementptr inbounds i8, ptr %sa, i64 16
  call void @llvm.memset.p0.i64(ptr noundef nonnull align 8 dereferenceable(32) %addRange, i8 0, i64 32, i1 false)
  invoke void @uprv_getCharNameCharacters_75(ptr noundef nonnull %sa)
          to label %invoke.cont8 unwind label %lpad7

invoke.cont8:                                     ; preds = %invoke.cont5
  ret void

lpad:                                             ; preds = %entry
  %1 = landingpad { ptr, i32 }
          cleanup
  br label %ehcleanup

lpad2:                                            ; preds = %invoke.cont
  %2 = landingpad { ptr, i32 }
          cleanup
  call void @_ZN6icu_7513UnicodeStringD1Ev(ptr noundef nonnull align 8 dereferenceable(64) %ref.tmp) #11
  br label %ehcleanup

ehcleanup:                                        ; preds = %lpad2, %lpad
  %.pn = phi { ptr, i32 } [ %2, %lpad2 ], [ %1, %lpad ]
  %3 = load ptr, ptr %agg.tmp, align 8
  call void asm sideeffect "", "rm,~{memory},~{dirflag},~{fpsr},~{flags}"(ptr %3) #11, !srcloc !4
  br label %eh.resume

lpad4:                                            ; preds = %invoke.cont3
  %4 = landingpad { ptr, i32 }
          cleanup
  br label %ehcleanup10

lpad7:                                            ; preds = %invoke.cont5
  %5 = landingpad { ptr, i32 }
          cleanup
  call void @_ZN6icu_7510UnicodeSetD1Ev(ptr noundef nonnull align 8 dereferenceable(200) %legal) #11
  br label %ehcleanup10

ehcleanup10:                                      ; preds = %lpad7, %lpad4
  %.pn2 = phi { ptr, i32 } [ %5, %lpad7 ], [ %4, %lpad4 ]
  call void @_ZN6icu_7514TransliteratorD2Ev(ptr noundef nonnull align 8 dereferenceable(84) %this) #11
  br label %eh.resume

eh.resume:                                        ; preds = %ehcleanup10, %ehcleanup
  %.pn2.pn = phi { ptr, i32 } [ %.pn2, %ehcleanup10 ], [ %.pn, %ehcleanup ]
  resume { ptr, i32 } %.pn2.pn
}